target datalayout = "e-m:e-p270:32:32-p271:32:32-p272:64:64-i64:64-i128:128-f80:128-n8:16:32:64-S128"
target triple = "x86_64-pc-linux-gnu"

%struct.ucd_record = type { i8, i8, i8, i8, i32, i16, i16 }
%struct.pcre2_real_code_8 = type { %struct.pcre2_memctl, ptr, ptr, [32 x i8], i64, i32, i32, i32, i32, i32, i32, i32, i32, i32, i32, i16, i16, i16, i16, i16, i16, i16, i16 }
%struct.pcre2_memctl = type { ptr, ptr, ptr }
%struct.compiler_common = type { ptr, ptr, ptr, ptr, ptr, ptr, ptr, ptr, i32, i32, i32, i32, i32, i32, i32, i32, i32, i32, i32, ptr, i32, i32, i32, ptr, ptr, i64, i32, i32, i32, i32, i32, i32, i32, i32, i32, i32, i32, i32, i32, i32, i32, i32, i32, i64, ptr, i64, i64, ptr, ptr, ptr, ptr, ptr, ptr, ptr, ptr, ptr, ptr, ptr, ptr, ptr, ptr, ptr, ptr, ptr, ptr, ptr, ptr, ptr, ptr, ptr, ptr, ptr, ptr, i32, i32, i32, i32, i32, i32, ptr, ptr, ptr, ptr, ptr, ptr, ptr, ptr, ptr }

@_pcre2_ucd_records_8 = external constant [0 x %struct.ucd_record], align 4
@_pcre2_ucd_stage2_8 = external constant [0 x i16], align 2
@_pcre2_ucd_stage1_8 = external constant [0 x i16], align 2

; Function Attrs: nounwind uwtable
define internal void @fast_forward_first_char(ptr noundef %0) #0 {
  %2 = alloca ptr, align 8
  %3 = alloca i8, align 1
  %4 = alloca i8, align 1
  store ptr %0, ptr %2, align 8
  %5 = load ptr, ptr %2, align 8
  %6 = getelementptr inbounds %struct.compiler_common, ptr %5, i32 0, i32 1
  %7 = load ptr, ptr %6, align 8
  %8 = getelementptr inbounds %struct.pcre2_real_code_8, ptr %7, i32 0, i32 13
  %9 = load i32, ptr %8, align 8
  %10 = trunc i32 %9 to i8
  store i8 %10, ptr %3, align 1
  %11 = load i8, ptr %3, align 1
  store i8 %11, ptr %4, align 1
  %12 = load ptr, ptr %2, align 8
  %13 = getelementptr inbounds %struct.compiler_common, ptr %12, i32 0, i32 1
  %14 = load ptr, ptr %13, align 8
  %15 = getelementptr inbounds %struct.pcre2_real_code_8, ptr %14, i32 0, i32 9
  %16 = load i32, ptr %15, align 8
  %17 = and i32 %16, 32
  %18 = icmp ne i32 %17, 0
  br i1 %18, label %19, label %66

19:                                               ; preds = %1
  %20 = load ptr, ptr %2, align 8
  %21 = getelementptr inbounds %struct.compiler_common, ptr %20, i32 0, i32 24
  %22 = load ptr, ptr %21, align 8
  %23 = load i8, ptr %3, align 1
  %24 = zext i8 %23 to i64
  %25 = getelementptr inbounds i8, ptr %22, i64 %24
  %26 = load i8, ptr %25, align 1
  store i8 %26, ptr %4, align 1
  %27 = load i8, ptr %3, align 1
  %28 = zext i8 %27 to i32
  %29 = icmp sgt i32 %28, 127
  br i1 %29, label %30, label %65

30:                                               ; preds = %19
  %31 = load ptr, ptr %2, align 8
  %32 = getelementptr inbounds %struct.compiler_common, ptr %31, i32 0, i32 75
  %33 = load i32, ptr %32, align 8
  %34 = icmp ne i32 %33, 0
  br i1 %34, label %40, label %35

35:                                               ; preds = %30
  %36 = load ptr, ptr %2, align 8
  %37 = getelementptr inbounds %struct.compiler_common, ptr %36, i32 0, i32 77
  %38 = load i32, ptr %37, align 8
  %39 = icmp ne i32 %38, 0
  br i1 %39, label %40, label %65

40:                                               ; preds = %35, %30
  %41 = load i8, ptr %3, align 1
  %42 = zext i8 %41 to i32
  %43 = load i8, ptr %3, align 1
  %44 = zext i8 %43 to i32
  %45 = sdiv i32 %44, 128
  %46 = sext i32 %45 to i64
  %47 = getelementptr inbounds [0 x i16], ptr @_pcre2_ucd_stage1_8, i64 0, i64 %46
  %48 = load i16, ptr %47, align 2
  %49 = zext i16 %48 to i32
  %50 = mul nsw i32 %49, 128
  %51 = load i8, ptr %3, align 1
  %52 = zext i8 %51 to i32
  %53 = srem i32 %52, 128
  %54 = add nsw i32 %50, %53
  %55 = sext i32 %54 to i64
  %56 = getelementptr inbounds [0 x i16], ptr @_pcre2_ucd_stage2_8, i64 0, i64 %55
  %57 = load i16, ptr %56, align 2
  %58 = zext i16 %57 to i32
  %59 = sext i32 %58 to i64
  %60 = getelementptr inbounds %struct.ucd_record, ptr @_pcre2_ucd_records_8, i64 %59
  %61 = getelementptr inbounds %struct.ucd_record, ptr %60, i32 0, i32 4
  %62 = load i32, ptr %61, align 4
  %63 = add nsw i32 %42, %62
  %64 = trunc i32 %63 to i8
  store i8 %64, ptr %4, align 1
  br label %65

65:                                               ; preds = %40, %35, %19
  br label %66

66:                                               ; preds = %65, %1
  %67 = load ptr, ptr %2, align 8
  %68 = load i8, ptr %3, align 1
  %69 = load i8, ptr %4, align 1
  call void @fast_forward_first_char2(ptr noundef %67, i8 noundef zeroext %68, i8 noundef zeroext %69, i32 noundef 0)
  ret void
}