; Function Attrs: nounwind uwtable
define internal fastcc void @fast_forward_first_char(ptr nocapture noundef %0) unnamed_addr #0 {
  %2 = getelementptr inbounds i8, ptr %0, i64 8
  %3 = load ptr, ptr %2, align 8
  %4 = getelementptr inbounds i8, ptr %3, i64 112
  %5 = load i32, ptr %4, align 8
  %6 = trunc i32 %5 to i8
  %7 = getelementptr inbounds i8, ptr %3, i64 96
  %8 = load i32, ptr %7, align 8
  %9 = and i32 %8, 32
  %.not = icmp eq i32 %9, 0
  br i1 %.not, label %37, label %10

10:                                               ; preds = %1
  %11 = getelementptr inbounds i8, ptr %0, i64 144
  %12 = load ptr, ptr %11, align 8
  %.mask = and i32 %5, 255
  %13 = zext nneg i32 %.mask to i64
  %14 = getelementptr inbounds i8, ptr %12, i64 %13
  %15 = load i8, ptr %14, align 1
  %16 = and i32 %5, 128
  %.not16 = icmp eq i32 %16, 0
  br i1 %.not16, label %37, label %17

17:                                               ; preds = %10
  %18 = getelementptr inbounds i8, ptr %0, i64 480
  %19 = load i32, ptr %18, align 8
  %.not14 = icmp eq i32 %19, 0
  br i1 %.not14, label %20, label %23

20:                                               ; preds = %17
  %21 = getelementptr inbounds i8, ptr %0, i64 488
  %22 = load i32, ptr %21, align 8
  %.not15 = icmp eq i32 %22, 0
  br i1 %.not15, label %37, label %23

23:                                               ; preds = %20, %17
  %24 = load i16, ptr getelementptr inbounds ([0 x i16], ptr @_pcre2_ucd_stage1_8, i64 0, i64 1), align 2
  %25 = zext i16 %24 to i32
  %26 = shl nuw nsw i32 %25, 7
  %27 = and i32 %5, 127
  %28 = or disjoint i32 %26, %27
  %29 = zext nneg i32 %28 to i64
  %30 = getelementptr inbounds [0 x i16], ptr @_pcre2_ucd_stage2_8, i64 0, i64 %29
  %31 = load i16, ptr %30, align 2
  %32 = zext i16 %31 to i64
  %33 = getelementptr inbounds %struct.ucd_record, ptr @_pcre2_ucd_records_8, i64 %32, i32 4
  %34 = load i32, ptr %33, align 4
  %35 = add i32 %34, %5
  %36 = trunc i32 %35 to i8
  br label %37

37:                                               ; preds = %10, %20, %23, %1
  %.0 = phi i8 [ %36, %23 ], [ %15, %20 ], [ %15, %10 ], [ %6, %1 ]
  tail call fastcc void @fast_forward_first_char2(ptr noundef nonnull %0, i8 noundef zeroext %6, i8 noundef zeroext %.0, i32 noundef 0)
  ret void
}